; Function Attrs: null_pointer_is_valid sspstrong uwtable
define internal noundef zeroext i1 @ssi_28_3(ptr noundef %0, ptr noundef %1, ptr readnone captures(none) %2, i32 noundef %3, i32 noundef %4, i32 %5) #0 {
  %7 = icmp eq i32 %3, 3
  %8 = icmp eq i32 %4, 5
  %or.cond = and i1 %7, %8
  br i1 %or.cond, label %9, label %14

9:                                                ; preds = %6
  %10 = load i32, ptr @ssi28_is_logical_fru, align 4
  switch i32 %10, label %.sink.split [
    i32 -1, label %14
    i32 0, label %11
  ]

11:                                               ; preds = %9
  br label %.sink.split

.sink.split:                                      ; preds = %9, %11
  %hf_ipmi_se_28_fru_device_id_within_controller.sink = phi ptr [ @hf_ipmi_se_28_i2c_slave_address, %11 ], [ @hf_ipmi_se_28_fru_device_id_within_controller, %9 ]
  %12 = load i32, ptr %hf_ipmi_se_28_fru_device_id_within_controller.sink, align 4
  %13 = tail call ptr @proto_tree_add_item(ptr noundef %0, i32 noundef %12, ptr noundef %1, i32 noundef 0, i32 noundef 1, i32 noundef -2147483648)
  br label %14

14:                                               ; preds = %.sink.split, %6, %9
  %.0 = phi i1 [ false, %9 ], [ false, %6 ], [ true, %.sink.split ]
  ret i1 %.0
}